target datalayout = "e-m:e-p270:32:32-p271:32:32-p272:64:64-i64:64-i128:128-f80:128-n8:16:32:64-S128"
target triple = "x86_64-pc-linux-gnu"

%struct.TuplesortPublic = type { ptr, ptr, ptr, ptr, ptr, ptr, ptr, ptr, ptr, i8, i32, ptr, ptr, i32, i8, ptr }
%struct.SortSupportData = type { ptr, i32, i8, i8, i16, ptr, ptr, i8, ptr, ptr, ptr }
%struct.RelationData = type { %struct.RelFileLocator, ptr, i32, i32, i8, i8, i8, i8, i8, i32, i32, i32, i32, ptr, ptr, i32, %struct.LockInfoData, ptr, ptr, ptr, ptr, ptr, i8, ptr, ptr, ptr, ptr, ptr, ptr, i32, ptr, i8, ptr, ptr, i32, i8, i32, ptr, i8, ptr, ptr, ptr, ptr, ptr, ptr, ptr, i32, ptr, ptr, ptr, ptr, ptr, ptr, ptr, ptr, ptr, ptr, ptr, ptr, ptr, ptr, ptr, ptr, ptr, ptr, ptr, i32, i8, ptr }
%struct.RelFileLocator = type { i32, i32, i32 }
%struct.LockInfoData = type { %struct.LockRelId }
%struct.LockRelId = type { i32, i32 }
%struct.FormData_pg_index = type { i32, i32, i16, i16, i8, i8, i8, i8, i8, i8, i8, i8, i8, i8, i8, %struct.int2vector }
%struct.int2vector = type { i32, i32, i32, i32, i32, i32, [0 x i16] }
%struct.BTScanInsertData = type { i8, i8, i8, i8, i8, ptr, i32, [32 x %struct.ScanKeyData] }
%struct.ScanKeyData = type { i32, i16, i16, i32, i32, %struct.FmgrInfo, i64 }
%struct.FmgrInfo = type { ptr, i32, i16, i8, i8, i8, ptr, ptr, ptr }
%struct.TuplesortIndexBTreeArg = type { %struct.TuplesortIndexArg, i8, i8 }
%struct.TuplesortIndexArg = type { ptr, ptr }

@trace_sort = external global i8, align 1
@.str.1 = private unnamed_addr constant [20 x i8] c"tuplesortvariants.c\00", align 1
@CurrentMemoryContext = external global ptr, align 8
@.str.2 = private unnamed_addr constant [63 x i8] c"begin index sort: unique = %c, workMem = %d, randomAccess = %c\00", align 1
@__func__.tuplesort_begin_index_btree = private unnamed_addr constant [28 x i8] c"tuplesort_begin_index_btree\00", align 1

; Function Attrs: inlinehint nounwind uwtable
define internal ptr @MemoryContextSwitchTo(ptr noundef %0) #3 {
  %2 = alloca ptr, align 8
  %3 = alloca ptr, align 8
  store ptr %0, ptr %2, align 8
  call void @llvm.lifetime.start.p0(i64 8, ptr %3) #6
  %4 = load ptr, ptr @CurrentMemoryContext, align 8
  store ptr %4, ptr %3, align 8
  %5 = load ptr, ptr %2, align 8
  store ptr %5, ptr @CurrentMemoryContext, align 8
  %6 = load ptr, ptr %3, align 8
  call void @llvm.lifetime.end.p0(i64 8, ptr %3) #6
  ret ptr %6
}

; Function Attrs: nounwind uwtable
define dso_local ptr @tuplesort_begin_index_btree(ptr noundef %0, ptr noundef %1, i1 noundef zeroext %2, i1 noundef zeroext %3, i32 noundef %4, ptr noundef %5, i32 noundef %6) #0 {
  %8 = alloca ptr, align 8
  %9 = alloca ptr, align 8
  %10 = alloca i8, align 1
  %11 = alloca i8, align 1
  %12 = alloca i32, align 4
  %13 = alloca ptr, align 8
  %14 = alloca i32, align 4
  %15 = alloca ptr, align 8
  %16 = alloca ptr, align 8
  %17 = alloca ptr, align 8
  %18 = alloca ptr, align 8
  %19 = alloca ptr, align 8
  %20 = alloca i32, align 4
  %21 = alloca ptr, align 8
  %22 = alloca ptr, align 8
  %23 = alloca i16, align 2
  store ptr %0, ptr %8, align 8
  store ptr %1, ptr %9, align 8
  %24 = zext i1 %2 to i8
  store i8 %24, ptr %10, align 1
  %25 = zext i1 %3 to i8
  store i8 %25, ptr %11, align 1
  store i32 %4, ptr %12, align 4
  store ptr %5, ptr %13, align 8
  store i32 %6, ptr %14, align 4
  call void @llvm.lifetime.start.p0(i64 8, ptr %15) #6
  %26 = load i32, ptr %12, align 4
  %27 = load ptr, ptr %13, align 8
  %28 = load i32, ptr %14, align 4
  %29 = call ptr @tuplesort_begin_common(i32 noundef %26, ptr noundef %27, i32 noundef %28)
  store ptr %29, ptr %15, align 8
  call void @llvm.lifetime.start.p0(i64 8, ptr %16) #6
  %30 = load ptr, ptr %15, align 8
  store ptr %30, ptr %16, align 8
  call void @llvm.lifetime.start.p0(i64 8, ptr %17) #6
  call void @llvm.lifetime.start.p0(i64 8, ptr %18) #6
  call void @llvm.lifetime.start.p0(i64 8, ptr %19) #6
  call void @llvm.lifetime.start.p0(i64 4, ptr %20) #6
  %31 = load ptr, ptr %16, align 8
  %32 = getelementptr inbounds nuw %struct.TuplesortPublic, ptr %31, i32 0, i32 6
  %33 = load ptr, ptr %32, align 8
  %34 = call ptr @MemoryContextSwitchTo(ptr noundef %33)
  store ptr %34, ptr %19, align 8
  %35 = call ptr @palloc(i64 noundef 24)
  store ptr %35, ptr %18, align 8
  %36 = load i8, ptr @trace_sort, align 1, !range !4, !noundef !5
  %37 = trunc i8 %36 to i1
  br i1 %37, label %38, label %57

38:                                               ; preds = %7
  br label %39

39:                                               ; preds = %38
  br i1 false, label %40, label %42

40:                                               ; preds = %39
  %41 = call zeroext i1 @errstart_cold(i32 noundef 15, ptr noundef null) #7
  br i1 %41, label %44, label %54

42:                                               ; preds = %39
  %43 = call zeroext i1 @errstart(i32 noundef 15, ptr noundef null)
  br i1 %43, label %44, label %54

44:                                               ; preds = %42, %40
  %45 = load i8, ptr %10, align 1, !range !4, !noundef !5
  %46 = trunc i8 %45 to i1
  %47 = select i1 %46, i32 116, i32 102
  %48 = load i32, ptr %12, align 4
  %49 = load i32, ptr %14, align 4
  %50 = and i32 %49, 1
  %51 = icmp ne i32 %50, 0
  %52 = select i1 %51, i32 116, i32 102
  %53 = call i32 (ptr, ...) @errmsg_internal(ptr noundef @.str.2, i32 noundef %47, i32 noundef %48, i32 noundef %52)
  call void @errfinish(ptr noundef @.str.1, i32 noundef 371, ptr noundef @__func__.tuplesort_begin_index_btree)
  br label %54

54:                                               ; preds = %44, %42, %40
  br label %55

55:                                               ; preds = %54
  br label %56

56:                                               ; preds = %55
  br label %57

57:                                               ; preds = %56, %7
  %58 = load ptr, ptr %9, align 8
  %59 = getelementptr inbounds nuw %struct.RelationData, ptr %58, i32 0, i32 48
  %60 = load ptr, ptr %59, align 8
  %61 = getelementptr inbounds nuw %struct.FormData_pg_index, ptr %60, i32 0, i32 3
  %62 = load i16, ptr %61, align 2
  %63 = sext i16 %62 to i32
  %64 = load ptr, ptr %16, align 8
  %65 = getelementptr inbounds nuw %struct.TuplesortPublic, ptr %64, i32 0, i32 10
  store i32 %63, ptr %65, align 4
  br label %66

66:                                               ; preds = %57
  br label %67

67:                                               ; preds = %66
  br label %68

68:                                               ; preds = %67
  %69 = load ptr, ptr %16, align 8
  %70 = getelementptr inbounds nuw %struct.TuplesortPublic, ptr %69, i32 0, i32 2
  store ptr @removeabbrev_index, ptr %70, align 8
  %71 = load ptr, ptr %16, align 8
  %72 = getelementptr inbounds nuw %struct.TuplesortPublic, ptr %71, i32 0, i32 0
  store ptr @comparetup_index_btree, ptr %72, align 8
  %73 = load ptr, ptr %16, align 8
  %74 = getelementptr inbounds nuw %struct.TuplesortPublic, ptr %73, i32 0, i32 1
  store ptr @comparetup_index_btree_tiebreak, ptr %74, align 8
  %75 = load ptr, ptr %16, align 8
  %76 = getelementptr inbounds nuw %struct.TuplesortPublic, ptr %75, i32 0, i32 3
  store ptr @writetup_index, ptr %76, align 8
  %77 = load ptr, ptr %16, align 8
  %78 = getelementptr inbounds nuw %struct.TuplesortPublic, ptr %77, i32 0, i32 4
  store ptr @readtup_index, ptr %78, align 8
  %79 = load ptr, ptr %16, align 8
  %80 = getelementptr inbounds nuw %struct.TuplesortPublic, ptr %79, i32 0, i32 9
  store i8 1, ptr %80, align 8
  %81 = load ptr, ptr %18, align 8
  %82 = load ptr, ptr %16, align 8
  %83 = getelementptr inbounds nuw %struct.TuplesortPublic, ptr %82, i32 0, i32 15
  store ptr %81, ptr %83, align 8
  %84 = load ptr, ptr %8, align 8
  %85 = load ptr, ptr %18, align 8
  %86 = getelementptr inbounds nuw %struct.TuplesortIndexBTreeArg, ptr %85, i32 0, i32 0
  %87 = getelementptr inbounds nuw %struct.TuplesortIndexArg, ptr %86, i32 0, i32 0
  store ptr %84, ptr %87, align 8
  %88 = load ptr, ptr %9, align 8
  %89 = load ptr, ptr %18, align 8
  %90 = getelementptr inbounds nuw %struct.TuplesortIndexBTreeArg, ptr %89, i32 0, i32 0
  %91 = getelementptr inbounds nuw %struct.TuplesortIndexArg, ptr %90, i32 0, i32 1
  store ptr %88, ptr %91, align 8
  %92 = load i8, ptr %10, align 1, !range !4, !noundef !5
  %93 = trunc i8 %92 to i1
  %94 = load ptr, ptr %18, align 8
  %95 = getelementptr inbounds nuw %struct.TuplesortIndexBTreeArg, ptr %94, i32 0, i32 1
  %96 = zext i1 %93 to i8
  store i8 %96, ptr %95, align 8
  %97 = load i8, ptr %11, align 1, !range !4, !noundef !5
  %98 = trunc i8 %97 to i1
  %99 = load ptr, ptr %18, align 8
  %100 = getelementptr inbounds nuw %struct.TuplesortIndexBTreeArg, ptr %99, i32 0, i32 2
  %101 = zext i1 %98 to i8
  store i8 %101, ptr %100, align 1
  %102 = load ptr, ptr %9, align 8
  %103 = call ptr @_bt_mkscankey(ptr noundef %102, ptr noundef null)
  store ptr %103, ptr %17, align 8
  %104 = load ptr, ptr %16, align 8
  %105 = getelementptr inbounds nuw %struct.TuplesortPublic, ptr %104, i32 0, i32 10
  %106 = load i32, ptr %105, align 4
  %107 = sext i32 %106 to i64
  %108 = mul i64 %107, 64
  %109 = call ptr @palloc0(i64 noundef %108)
  %110 = load ptr, ptr %16, align 8
  %111 = getelementptr inbounds nuw %struct.TuplesortPublic, ptr %110, i32 0, i32 11
  store ptr %109, ptr %111, align 8
  store i32 0, ptr %20, align 4
  br label %112

112:                                              ; preds = %174, %68
  %113 = load i32, ptr %20, align 4
  %114 = load ptr, ptr %16, align 8
  %115 = getelementptr inbounds nuw %struct.TuplesortPublic, ptr %114, i32 0, i32 10
  %116 = load i32, ptr %115, align 4
  %117 = icmp slt i32 %113, %116
  br i1 %117, label %118, label %177

118:                                              ; preds = %112
  call void @llvm.lifetime.start.p0(i64 8, ptr %21) #6
  %119 = load ptr, ptr %16, align 8
  %120 = getelementptr inbounds nuw %struct.TuplesortPublic, ptr %119, i32 0, i32 11
  %121 = load ptr, ptr %120, align 8
  %122 = load i32, ptr %20, align 4
  %123 = sext i32 %122 to i64
  %124 = getelementptr inbounds %struct.SortSupportData, ptr %121, i64 %123
  store ptr %124, ptr %21, align 8
  call void @llvm.lifetime.start.p0(i64 8, ptr %22) #6
  %125 = load ptr, ptr %17, align 8
  %126 = getelementptr inbounds nuw %struct.BTScanInsertData, ptr %125, i32 0, i32 7
  %127 = getelementptr inbounds [32 x %struct.ScanKeyData], ptr %126, i64 0, i64 0
  %128 = load i32, ptr %20, align 4
  %129 = sext i32 %128 to i64
  %130 = getelementptr inbounds %struct.ScanKeyData, ptr %127, i64 %129
  store ptr %130, ptr %22, align 8
  call void @llvm.lifetime.start.p0(i64 2, ptr %23) #6
  %131 = load ptr, ptr @CurrentMemoryContext, align 8
  %132 = load ptr, ptr %21, align 8
  %133 = getelementptr inbounds nuw %struct.SortSupportData, ptr %132, i32 0, i32 0
  store ptr %131, ptr %133, align 8
  %134 = load ptr, ptr %22, align 8
  %135 = getelementptr inbounds nuw %struct.ScanKeyData, ptr %134, i32 0, i32 4
  %136 = load i32, ptr %135, align 4
  %137 = load ptr, ptr %21, align 8
  %138 = getelementptr inbounds nuw %struct.SortSupportData, ptr %137, i32 0, i32 1
  store i32 %136, ptr %138, align 8
  %139 = load ptr, ptr %22, align 8
  %140 = getelementptr inbounds nuw %struct.ScanKeyData, ptr %139, i32 0, i32 0
  %141 = load i32, ptr %140, align 8
  %142 = and i32 %141, 33554432
  %143 = icmp ne i32 %142, 0
  %144 = load ptr, ptr %21, align 8
  %145 = getelementptr inbounds nuw %struct.SortSupportData, ptr %144, i32 0, i32 3
  %146 = zext i1 %143 to i8
  store i8 %146, ptr %145, align 1
  %147 = load ptr, ptr %22, align 8
  %148 = getelementptr inbounds nuw %struct.ScanKeyData, ptr %147, i32 0, i32 1
  %149 = load i16, ptr %148, align 4
  %150 = load ptr, ptr %21, align 8
  %151 = getelementptr inbounds nuw %struct.SortSupportData, ptr %150, i32 0, i32 4
  store i16 %149, ptr %151, align 2
  %152 = load i32, ptr %20, align 4
  %153 = icmp eq i32 %152, 0
  br i1 %153, label %154, label %159

154:                                              ; preds = %118
  %155 = load ptr, ptr %16, align 8
  %156 = getelementptr inbounds nuw %struct.TuplesortPublic, ptr %155, i32 0, i32 9
  %157 = load i8, ptr %156, align 8, !range !4, !noundef !5
  %158 = trunc i8 %157 to i1
  br label %159

159:                                              ; preds = %154, %118
  %160 = phi i1 [ false, %118 ], [ %158, %154 ]
  %161 = load ptr, ptr %21, align 8
  %162 = getelementptr inbounds nuw %struct.SortSupportData, ptr %161, i32 0, i32 7
  %163 = zext i1 %160 to i8
  store i8 %163, ptr %162, align 8
  %164 = load ptr, ptr %22, align 8
  %165 = getelementptr inbounds nuw %struct.ScanKeyData, ptr %164, i32 0, i32 0
  %166 = load i32, ptr %165, align 8
  %167 = and i32 %166, 16777216
  %168 = icmp ne i32 %167, 0
  %169 = select i1 %168, i32 5, i32 1
  %170 = trunc i32 %169 to i16
  store i16 %170, ptr %23, align 2
  %171 = load ptr, ptr %9, align 8
  %172 = load i16, ptr %23, align 2
  %173 = load ptr, ptr %21, align 8
  call void @PrepareSortSupportFromIndexRel(ptr noundef %171, i16 noundef signext %172, ptr noundef %173)
  call void @llvm.lifetime.end.p0(i64 2, ptr %23) #6
  call void @llvm.lifetime.end.p0(i64 8, ptr %22) #6
  call void @llvm.lifetime.end.p0(i64 8, ptr %21) #6
  br label %174

174:                                              ; preds = %159
  %175 = load i32, ptr %20, align 4
  %176 = add i32 %175, 1
  store i32 %176, ptr %20, align 4
  br label %112, !llvm.loop !14

177:                                              ; preds = %112
  %178 = load ptr, ptr %17, align 8
  call void @pfree(ptr noundef %178)
  %179 = load ptr, ptr %19, align 8
  %180 = call ptr @MemoryContextSwitchTo(ptr noundef %179)
  %181 = load ptr, ptr %15, align 8
  call void @llvm.lifetime.end.p0(i64 4, ptr %20) #6
  call void @llvm.lifetime.end.p0(i64 8, ptr %19) #6
  call void @llvm.lifetime.end.p0(i64 8, ptr %18) #6
  call void @llvm.lifetime.end.p0(i64 8, ptr %17) #6
  call void @llvm.lifetime.end.p0(i64 8, ptr %16) #6
  call void @llvm.lifetime.end.p0(i64 8, ptr %15) #6
  ret ptr %181
}