; Function Attrs: nounwind uwtable
define dso_local ptr @tuplesort_begin_index_btree(ptr noundef %0, ptr noundef %1, i1 noundef zeroext %2, i1 noundef zeroext %3, i32 noundef %4, ptr noundef %5, i32 noundef %6) local_unnamed_addr #0 {
  %8 = zext i1 %2 to i8
  %9 = zext i1 %3 to i8
  %10 = tail call ptr @tuplesort_begin_common(i32 noundef %4, ptr noundef %5, i32 noundef %6) #12
  %11 = getelementptr inbounds nuw i8, ptr %10, i64 48
  %12 = load ptr, ptr %11, align 8
  %13 = load ptr, ptr @CurrentMemoryContext, align 8
  store ptr %12, ptr @CurrentMemoryContext, align 8
  %14 = tail call ptr @palloc(i64 noundef 24) #12
  %15 = load i8, ptr @trace_sort, align 1, !range !4, !noundef !5
  %16 = trunc nuw i8 %15 to i1
  br i1 %16, label %17, label %24

17:                                               ; preds = %7
  %18 = tail call zeroext i1 @errstart(i32 noundef 15, ptr noundef null) #12
  br i1 %18, label %19, label %24

19:                                               ; preds = %17
  %20 = select i1 %2, i32 116, i32 102
  %21 = and i32 %6, 1
  %.not = icmp eq i32 %21, 0
  %22 = select i1 %.not, i32 102, i32 116
  %23 = tail call i32 (ptr, ...) @errmsg_internal(ptr noundef nonnull @.str.2, i32 noundef %20, i32 noundef %4, i32 noundef %22) #12
  tail call void @errfinish(ptr noundef nonnull @.str.1, i32 noundef 371, ptr noundef nonnull @__func__.tuplesort_begin_index_btree) #12
  br label %24

24:                                               ; preds = %17, %19, %7
  %25 = getelementptr inbounds nuw i8, ptr %1, i64 328
  %26 = load ptr, ptr %25, align 8
  %27 = getelementptr inbounds nuw i8, ptr %26, i64 10
  %28 = load i16, ptr %27, align 2
  %29 = sext i16 %28 to i32
  %30 = getelementptr inbounds nuw i8, ptr %10, i64 76
  store i32 %29, ptr %30, align 4
  %31 = getelementptr inbounds nuw i8, ptr %10, i64 16
  store ptr @removeabbrev_index, ptr %31, align 8
  store ptr @comparetup_index_btree, ptr %10, align 8
  %32 = getelementptr inbounds nuw i8, ptr %10, i64 8
  store ptr @comparetup_index_btree_tiebreak, ptr %32, align 8
  %33 = getelementptr inbounds nuw i8, ptr %10, i64 24
  store ptr @writetup_index, ptr %33, align 8
  %34 = getelementptr inbounds nuw i8, ptr %10, i64 32
  store ptr @readtup_index, ptr %34, align 8
  %35 = getelementptr inbounds nuw i8, ptr %10, i64 72
  store i8 1, ptr %35, align 8
  %36 = getelementptr inbounds nuw i8, ptr %10, i64 104
  store ptr %14, ptr %36, align 8
  store ptr %0, ptr %14, align 8
  %37 = getelementptr inbounds nuw i8, ptr %14, i64 8
  store ptr %1, ptr %37, align 8
  %38 = getelementptr inbounds nuw i8, ptr %14, i64 16
  store i8 %8, ptr %38, align 8
  %39 = getelementptr inbounds nuw i8, ptr %14, i64 17
  store i8 %9, ptr %39, align 1
  %40 = tail call ptr @_bt_mkscankey(ptr noundef %1, ptr noundef null) #12
  %41 = load i32, ptr %30, align 4
  %42 = sext i32 %41 to i64
  %43 = shl nsw i64 %42, 6
  %44 = tail call ptr @palloc0(i64 noundef %43) #12
  %45 = getelementptr inbounds nuw i8, ptr %10, i64 80
  store ptr %44, ptr %45, align 8
  %46 = load i32, ptr %30, align 4
  %47 = icmp sgt i32 %46, 0
  br i1 %47, label %.lr.ph, label %._crit_edge

.lr.ph:                                           ; preds = %24
  %48 = getelementptr inbounds nuw i8, ptr %40, i64 24
  br label %49

49:                                               ; preds = %.lr.ph, %68
  %indvars.iv = phi i64 [ 0, %.lr.ph ], [ %indvars.iv.next, %68 ]
  %50 = load ptr, ptr %45, align 8
  %51 = getelementptr inbounds nuw %struct.SortSupportData, ptr %50, i64 %indvars.iv
  %52 = getelementptr inbounds nuw %struct.ScanKeyData, ptr %48, i64 %indvars.iv
  %53 = load ptr, ptr @CurrentMemoryContext, align 8
  store ptr %53, ptr %51, align 8
  %54 = getelementptr inbounds nuw i8, ptr %52, i64 12
  %55 = load i32, ptr %54, align 4
  %56 = getelementptr inbounds nuw i8, ptr %51, i64 8
  store i32 %55, ptr %56, align 8
  %57 = load i32, ptr %52, align 8
  %58 = getelementptr inbounds nuw i8, ptr %51, i64 13
  %59 = lshr i32 %57, 25
  %60 = trunc nuw nsw i32 %59 to i8
  %61 = and i8 %60, 1
  store i8 %61, ptr %58, align 1
  %62 = getelementptr inbounds nuw i8, ptr %52, i64 4
  %63 = load i16, ptr %62, align 4
  %64 = getelementptr inbounds nuw i8, ptr %51, i64 14
  store i16 %63, ptr %64, align 2
  %65 = icmp eq i64 %indvars.iv, 0
  br i1 %65, label %66, label %68

66:                                               ; preds = %49
  %67 = load i8, ptr %35, align 8, !range !4, !noundef !5
  br label %68

68:                                               ; preds = %66, %49
  %69 = phi i8 [ 0, %49 ], [ %67, %66 ]
  %70 = getelementptr inbounds nuw i8, ptr %51, i64 32
  store i8 %69, ptr %70, align 8
  %71 = load i32, ptr %52, align 8
  %72 = and i32 %71, 16777216
  %.not52 = icmp eq i32 %72, 0
  %73 = select i1 %.not52, i16 1, i16 5
  tail call void @PrepareSortSupportFromIndexRel(ptr noundef %1, i16 noundef signext %73, ptr noundef nonnull %51) #12
  %indvars.iv.next = add nuw nsw i64 %indvars.iv, 1
  %74 = load i32, ptr %30, align 4
  %75 = sext i32 %74 to i64
  %76 = icmp slt i64 %indvars.iv.next, %75
  br i1 %76, label %49, label %._crit_edge, !llvm.loop !14

._crit_edge:                                      ; preds = %68, %24
  tail call void @pfree(ptr noundef %40) #12
  store ptr %13, ptr @CurrentMemoryContext, align 8
  ret ptr %10
}